; Function Attrs: mustprogress nofree nounwind memory(read, argmem: readwrite, inaccessiblemem: none) uwtable
define nonnull ptr @_ZN7Imf_3_411FrameBuffer4findEPKc(ptr noundef nonnull readonly align 8 dereferenceable(48) %0, ptr noundef readonly captures(none) %1) local_unnamed_addr #10 align 2 {
  %3 = alloca %"class.Imf_3_4::Name", align 1
  call void @llvm.lifetime.start.p0(i64 256, ptr nonnull %3) #22
  %4 = call ptr @strncpy(ptr noundef nonnull align 1 dereferenceable(256) %3, ptr noundef nonnull dereferenceable(1) %1, i64 noundef 255) #22
  %5 = getelementptr inbounds nuw i8, ptr %3, i64 255
  store i8 0, ptr %5, align 1, !tbaa !28
  %6 = getelementptr inbounds nuw i8, ptr %0, i64 16
  %7 = load ptr, ptr %6, align 8, !tbaa !29
  %8 = getelementptr inbounds nuw i8, ptr %0, i64 8
  %.not10.i.i.i = icmp eq ptr %7, null
  br i1 %.not10.i.i.i, label %_ZNSt3mapIN7Imf_3_44NameENS0_5SliceESt4lessIS1_ESaISt4pairIKS1_S2_EEE4findERS6_.exit, label %.lr.ph.i.i.i

.lr.ph.i.i.i:                                     ; preds = %2, %.lr.ph.i.i.i
  %.012.i.i.i = phi ptr [ %.1.i.i.i, %.lr.ph.i.i.i ], [ %7, %2 ]
  %.0811.i.i.i = phi ptr [ %.19.i.i.i, %.lr.ph.i.i.i ], [ %8, %2 ]
  %9 = getelementptr inbounds nuw i8, ptr %.012.i.i.i, i64 32
  %10 = call i32 @strcmp(ptr noundef nonnull align 1 dereferenceable(256) %9, ptr noundef nonnull align 1 dereferenceable(256) %3) #24
  %11 = icmp slt i32 %10, 0
  %.19.i.i.i = select i1 %11, ptr %.0811.i.i.i, ptr %.012.i.i.i
  %.1.in.v.i.i.i = select i1 %11, i64 24, i64 16
  %.1.in.i.i.i = getelementptr inbounds nuw i8, ptr %.012.i.i.i, i64 %.1.in.v.i.i.i
  %.1.i.i.i = load ptr, ptr %.1.in.i.i.i, align 8, !tbaa !34
  %.not.i.i.i = icmp eq ptr %.1.i.i.i, null
  br i1 %.not.i.i.i, label %_ZNSt8_Rb_treeIN7Imf_3_44NameESt4pairIKS1_NS0_5SliceEESt10_Select1stIS5_ESt4lessIS1_ESaIS5_EE14_M_lower_boundEPSt13_Rb_tree_nodeIS5_EPSt18_Rb_tree_node_baseRS3_.exit.i.i, label %.lr.ph.i.i.i, !llvm.loop !35

_ZNSt8_Rb_treeIN7Imf_3_44NameESt4pairIKS1_NS0_5SliceEESt10_Select1stIS5_ESt4lessIS1_ESaIS5_EE14_M_lower_boundEPSt13_Rb_tree_nodeIS5_EPSt18_Rb_tree_node_baseRS3_.exit.i.i: ; preds = %.lr.ph.i.i.i
  %12 = icmp eq ptr %.19.i.i.i, %8
  br i1 %12, label %_ZNSt3mapIN7Imf_3_44NameENS0_5SliceESt4lessIS1_ESaISt4pairIKS1_S2_EEE4findERS6_.exit, label %13

13:                                               ; preds = %_ZNSt8_Rb_treeIN7Imf_3_44NameESt4pairIKS1_NS0_5SliceEESt10_Select1stIS5_ESt4lessIS1_ESaIS5_EE14_M_lower_boundEPSt13_Rb_tree_nodeIS5_EPSt18_Rb_tree_node_baseRS3_.exit.i.i
  %14 = getelementptr inbounds nuw i8, ptr %.19.i.i.i, i64 32
  %15 = call i32 @strcmp(ptr noundef nonnull align 1 dereferenceable(256) %3, ptr noundef nonnull align 1 dereferenceable(256) %14) #24
  %16 = icmp slt i32 %15, 0
  %spec.select.i.i = select i1 %16, ptr %8, ptr %.19.i.i.i
  br label %_ZNSt3mapIN7Imf_3_44NameENS0_5SliceESt4lessIS1_ESaISt4pairIKS1_S2_EEE4findERS6_.exit

_ZNSt3mapIN7Imf_3_44NameENS0_5SliceESt4lessIS1_ESaISt4pairIKS1_S2_EEE4findERS6_.exit: ; preds = %2, %_ZNSt8_Rb_treeIN7Imf_3_44NameESt4pairIKS1_NS0_5SliceEESt10_Select1stIS5_ESt4lessIS1_ESaIS5_EE14_M_lower_boundEPSt13_Rb_tree_nodeIS5_EPSt18_Rb_tree_node_baseRS3_.exit.i.i, %13
  %.sroa.0.0.i.i = phi ptr [ %8, %_ZNSt8_Rb_treeIN7Imf_3_44NameESt4pairIKS1_NS0_5SliceEESt10_Select1stIS5_ESt4lessIS1_ESaIS5_EE14_M_lower_boundEPSt13_Rb_tree_nodeIS5_EPSt18_Rb_tree_node_baseRS3_.exit.i.i ], [ %8, %2 ], [ %spec.select.i.i, %13 ]
  call void @llvm.lifetime.end.p0(i64 256, ptr nonnull %3) #22
  ret ptr %.sroa.0.0.i.i
}